; Function Attrs: mustprogress uwtable
define void @_Z18get_train_filenameB5cxx11PKcS0_S0_l(ptr noalias sret(%"class.std::__cxx11::basic_string") align 8 %agg.result, ptr noundef %filename, ptr noundef %pattern_it, ptr noundef %latest, i64 noundef %iteration) local_unnamed_addr #3 personality ptr @__gxx_personality_v0 {
entry:
  %sit = alloca %"class.std::__cxx11::basic_string", align 8
  %ref.tmp = alloca %"class.std::allocator", align 1
  %cmp = icmp slt i64 %iteration, 0
  br i1 %cmp, label %cond.false, label %cond.end

cond.false:                                       ; preds = %entry
  call void @_ZNSaIcEC1Ev(ptr noundef nonnull align 1 dereferenceable(1) %ref.tmp) #36
  invoke void @_ZNSt7__cxx1112basic_stringIcSt11char_traitsIcESaIcEEC1EPKcRKS3_(ptr noundef nonnull align 8 dereferenceable(32) %sit, ptr noundef %latest, ptr noundef nonnull align 1 dereferenceable(1) %ref.tmp)
          to label %cleanup.action unwind label %lpad

cond.end:                                         ; preds = %entry
  call void @_ZNSt7__cxx119to_stringEl(ptr nonnull sret(%"class.std::__cxx11::basic_string") align 8 %sit, i64 noundef %iteration)
  br label %cleanup.done

cleanup.action:                                   ; preds = %cond.false
  call void @_ZNSaIcED1Ev(ptr noundef nonnull align 1 dereferenceable(1) %ref.tmp) #36
  br label %cleanup.done

cleanup.done:                                     ; preds = %cond.end, %cleanup.action
  %call = call noundef ptr @_ZNKSt7__cxx1112basic_stringIcSt11char_traitsIcESaIcEE5c_strEv(ptr noundef nonnull align 8 dereferenceable(32) %sit) #36
  invoke void @_Z11replace_strB5cxx11PKcS0_S0_(ptr sret(%"class.std::__cxx11::basic_string") align 8 %agg.result, ptr noundef %filename, ptr noundef %pattern_it, ptr noundef %call)
          to label %invoke.cont5 unwind label %lpad4

invoke.cont5:                                     ; preds = %cleanup.done
  call void @_ZNSt7__cxx1112basic_stringIcSt11char_traitsIcESaIcEED1Ev(ptr noundef nonnull align 8 dereferenceable(32) %sit) #36
  ret void

lpad:                                             ; preds = %cond.false
  %0 = landingpad { ptr, i32 }
          cleanup
  call void @_ZNSaIcED1Ev(ptr noundef nonnull align 1 dereferenceable(1) %ref.tmp) #36
  br label %eh.resume

lpad4:                                            ; preds = %cleanup.done
  %1 = landingpad { ptr, i32 }
          cleanup
  call void @_ZNSt7__cxx1112basic_stringIcSt11char_traitsIcESaIcEED1Ev(ptr noundef nonnull align 8 dereferenceable(32) %sit) #36
  br label %eh.resume

eh.resume:                                        ; preds = %lpad, %lpad4
  %.pn = phi { ptr, i32 } [ %1, %lpad4 ], [ %0, %lpad ]
  resume { ptr, i32 } %.pn
}